(lp0
S'DESC:manner'
p1
aS'ENTY:cremat'
p2
aS'DESC:manner'
p3
aS'ENTY:animal'
p4
aS'ABBR:exp'
p5
aS'HUM:ind'
p6
aS'HUM:gr'
p7
aS'HUM:title'
p8
aS'DESC:def'
p9
aS'HUM:ind'
p10
aS'NUM:date'
p11
aS'DESC:reason'
p12
aS'HUM:ind'
p13
aS'HUM:ind'
p14
aS'ENTY:event'
p15
aS'LOC:state'
p16
aS'DESC:desc'
p17
aS'NUM:count'
p18
aS'DESC:def'
p19
aS'DESC:def'
p20
aS'NUM:date'
p21
aS'ENTY:other'
p22
aS'HUM:ind'
p23
aS'DESC:desc'
p24
aS'DESC:desc'
p25
aS'ENTY:letter'
p26
aS'HUM:ind'
p27
aS'LOC:other'
p28
aS'ENTY:other'
p29
aS'LOC:state'
p30
aS'ABBR:exp'
p31
aS'ENTY:other'
p32
aS'NUM:count'
p33
aS'HUM:gr'
p34
aS'NUM:count'
p35
aS'DESC:desc'
p36
aS'NUM:date'
p37
aS'ENTY:religion'
p38
aS'LOC:other'
p39
aS'ENTY:animal'
p40
aS'DESC:manner'
p41
aS'ENTY:other'
p42
aS'NUM:count'
p43
aS'NUM:count'
p44
aS'DESC:manner'
p45
aS'HUM:ind'
p46
aS'ENTY:food'
p47
aS'HUM:gr'
p48
aS'DESC:manner'
p49
aS'ENTY:other'
p50
aS'LOC:country'
p51
aS'DESC:def'
p52
aS'HUM:ind'
p53
aS'DESC:desc'
p54
aS'HUM:ind'
p55
aS'DESC:def'
p56
aS'ENTY:color'
p57
aS'ENTY:termeq'
p58
aS'LOC:state'
p59
aS'DESC:def'
p60
aS'LOC:other'
p61
aS'DESC:def'
p62
aS'LOC:country'
p63
aS'DESC:def'
p64
aS'HUM:ind'
p65
aS'LOC:city'
p66
aS'DESC:def'
p67
aS'DESC:reason'
p68
aS'LOC:other'
p69
aS'DESC:reason'
p70
aS'LOC:other'
p71
aS'HUM:ind'
p72
aS'ENTY:other'
p73
aS'DESC:desc'
p74
aS'HUM:ind'
p75
aS'DESC:manner'
p76
aS'HUM:ind'
p77
aS'ENTY:body'
p78
aS'DESC:manner'
p79
aS'LOC:country'
p80
aS'ENTY:other'
p81
aS'NUM:count'
p82
aS'DESC:desc'
p83
aS'LOC:state'
p84
aS'ENTY:animal'
p85
aS'NUM:count'
p86
aS'LOC:country'
p87
aS'ENTY:dismed'
p88
aS'HUM:ind'
p89
aS'NUM:date'
p90
aS'NUM:date'
p91
aS'DESC:reason'
p92
aS'DESC:def'
p93
aS'ENTY:cremat'
p94
aS'DESC:def'
p95
aS'DESC:def'
p96
aS'HUM:gr'
p97
aS'DESC:def'
p98
aS'NUM:date'
p99
aS'LOC:country'
p100
aS'HUM:ind'
p101
aS'DESC:desc'
p102
aS'DESC:desc'
p103
aS'ENTY:animal'
p104
aS'HUM:ind'
p105
aS'HUM:ind'
p106
aS'DESC:manner'
p107
aS'LOC:state'
p108
aS'ENTY:animal'
p109
aS'LOC:mount'
p110
aS'DESC:desc'
p111
aS'LOC:other'
p112
aS'LOC:other'
p113
aS'ENTY:cremat'
p114
aS'ENTY:animal'
p115
aS'ENTY:cremat'
p116
aS'LOC:other'
p117
aS'NUM:money'
p118
aS'ENTY:termeq'
p119
aS'DESC:def'
p120
aS'LOC:other'
p121
aS'ENTY:product'
p122
aS'DESC:manner'
p123
aS'NUM:period'
p124
aS'DESC:manner'
p125
aS'DESC:desc'
p126
aS'DESC:manner'
p127
aS'HUM:ind'
p128
aS'HUM:gr'
p129
aS'NUM:date'
p130
aS'ENTY:cremat'
p131
aS'DESC:def'
p132
aS'ENTY:cremat'
p133
aS'ENTY:animal'
p134
aS'ENTY:substance'
p135
aS'NUM:money'
p136
aS'HUM:ind'
p137
aS'DESC:def'
p138
aS'DESC:def'
p139
aS'NUM:count'
p140
aS'LOC:other'
p141
aS'ENTY:animal'
p142
aS'LOC:city'
p143
aS'ENTY:cremat'
p144
aS'DESC:desc'
p145
aS'NUM:count'
p146
aS'DESC:manner'
p147
aS'ABBR:exp'
p148
aS'HUM:gr'
p149
aS'HUM:ind'
p150
aS'HUM:ind'
p151
aS'HUM:ind'
p152
aS'NUM:count'
p153
aS'HUM:ind'
p154
aS'ENTY:body'
p155
aS'HUM:ind'
p156
aS'LOC:country'
p157
aS'ENTY:cremat'
p158
aS'ENTY:cremat'
p159
aS'DESC:def'
p160
aS'ENTY:event'
p161
aS'NUM:date'
p162
aS'ENTY:body'
p163
aS'DESC:def'
p164
aS'LOC:other'
p165
aS'HUM:gr'
p166
aS'HUM:ind'
p167
aS'LOC:other'
p168
aS'NUM:date'
p169
aS'NUM:count'
p170
aS'LOC:other'
p171
aS'NUM:date'
p172
aS'HUM:ind'
p173
aS'HUM:ind'
p174
aS'ENTY:cremat'
p175
aS'HUM:gr'
p176
aS'DESC:desc'
p177
aS'DESC:reason'
p178
aS'NUM:count'
p179
aS'LOC:city'
p180
aS'LOC:other'
p181
aS'ENTY:sport'
p182
aS'HUM:ind'
p183
aS'HUM:title'
p184
aS'DESC:reason'
p185
aS'DESC:def'
p186
aS'DESC:reason'
p187
aS'NUM:date'
p188
aS'DESC:def'
p189
aS'LOC:country'
p190
aS'ENTY:dismed'
p191
aS'LOC:other'
p192
aS'HUM:gr'
p193
aS'LOC:city'
p194
aS'ENTY:body'
p195
aS'HUM:ind'
p196
aS'HUM:ind'
p197
aS'NUM:date'
p198
aS'LOC:country'
p199
aS'DESC:manner'
p200
aS'HUM:ind'
p201
aS'DESC:def'
p202
aS'DESC:manner'
p203
aS'NUM:date'
p204
aS'HUM:ind'
p205
aS'HUM:ind'
p206
aS'NUM:date'
p207
aS'ENTY:termeq'
p208
aS'DESC:reason'
p209
aS'HUM:gr'
p210
aS'ENTY:event'
p211
aS'ENTY:other'
p212
aS'LOC:city'
p213
aS'DESC:manner'
p214
aS'DESC:reason'
p215
aS'NUM:count'
p216
aS'DESC:def'
p217
aS'NUM:count'
p218
aS'ENTY:plant'
p219
aS'HUM:gr'
p220
aS'DESC:desc'
p221
aS'ABBR:exp'
p222
aS'ENTY:techmeth'
p223
aS'DESC:desc'
p224
aS'DESC:def'
p225
aS'ENTY:other'
p226
aS'NUM:volsize'
p227
aS'DESC:manner'
p228
aS'NUM:date'
p229
aS'NUM:money'
p230
aS'LOC:country'
p231
aS'DESC:def'
p232
aS'HUM:ind'
p233
aS'DESC:reason'
p234
aS'HUM:ind'
p235
aS'NUM:count'
p236
aS'LOC:mount'
p237
aS'LOC:other'
p238
aS'ENTY:techmeth'
p239
aS'HUM:ind'
p240
aS'ENTY:dismed'
p241
aS'ENTY:food'
p242
aS'NUM:count'
p243
aS'DESC:def'
p244
aS'LOC:other'
p245
aS'NUM:count'
p246
aS'HUM:ind'
p247
aS'DESC:def'
p248
aS'DESC:desc'
p249
aS'ENTY:animal'
p250
aS'NUM:date'
p251
aS'HUM:ind'
p252
aS'DESC:desc'
p253
aS'HUM:gr'
p254
aS'NUM:date'
p255
aS'HUM:desc'
p256
aS'ENTY:instru'
p257
aS'DESC:def'
p258
aS'ENTY:other'
p259
aS'LOC:other'
p260
aS'NUM:date'
p261
aS'ABBR:exp'
p262
aS'NUM:date'
p263
aS'NUM:count'
p264
aS'DESC:def'
p265
aS'LOC:city'
p266
aS'DESC:manner'
p267
aS'DESC:def'
p268
aS'ENTY:other'
p269
aS'HUM:ind'
p270
aS'ENTY:techmeth'
p271
aS'ENTY:food'
p272
aS'ENTY:color'
p273
aS'HUM:ind'
p274
aS'HUM:ind'
p275
aS'HUM:ind'
p276
aS'DESC:def'
p277
aS'NUM:date'
p278
aS'ENTY:other'
p279
aS'NUM:date'
p280
aS'NUM:count'
p281
aS'ENTY:animal'
p282
aS'NUM:date'
p283
aS'NUM:volsize'
p284
aS'ENTY:animal'
p285
aS'LOC:city'
p286
aS'HUM:ind'
p287
aS'HUM:ind'
p288
aS'LOC:country'
p289
aS'DESC:manner'
p290
aS'DESC:desc'
p291
aS'LOC:other'
p292
aS'ENTY:termeq'
p293
aS'DESC:manner'
p294
aS'ABBR:exp'
p295
aS'LOC:other'
p296
aS'ENTY:termeq'
p297
aS'ENTY:animal'
p298
aS'LOC:city'
p299
aS'ENTY:termeq'
p300
aS'ENTY:dismed'
p301
aS'HUM:gr'
p302
aS'ENTY:sport'
p303
aS'HUM:ind'
p304
aS'ABBR:abb'
p305
aS'ENTY:other'
p306
aS'HUM:gr'
p307
aS'ABBR:exp'
p308
aS'ABBR:exp'
p309
aS'ENTY:other'
p310
aS'LOC:other'
p311
aS'HUM:ind'
p312
aS'DESC:reason'
p313
aS'NUM:other'
p314
aS'NUM:date'
p315
aS'HUM:ind'
p316
aS'LOC:state'
p317
aS'ENTY:techmeth'
p318
aS'LOC:state'
p319
aS'HUM:gr'
p320
aS'DESC:manner'
p321
aS'NUM:count'
p322
aS'LOC:other'
p323
aS'ENTY:color'
p324
aS'DESC:manner'
p325
aS'NUM:other'
p326
aS'HUM:ind'
p327
aS'LOC:other'
p328
aS'HUM:ind'
p329
aS'DESC:manner'
p330
aS'DESC:manner'
p331
aS'NUM:other'
p332
aS'NUM:other'
p333
aS'NUM:count'
p334
aS'DESC:def'
p335
aS'ENTY:animal'
p336
aS'HUM:ind'
p337
aS'HUM:ind'
p338
aS'ENTY:substance'
p339
aS'HUM:ind'
p340
aS'ENTY:other'
p341
aS'LOC:other'
p342
aS'LOC:other'
p343
aS'HUM:ind'
p344
aS'HUM:gr'
p345
aS'ENTY:product'
p346
aS'HUM:ind'
p347
aS'NUM:count'
p348
aS'ENTY:techmeth'
p349
aS'DESC:manner'
p350
aS'HUM:ind'
p351
aS'NUM:speed'
p352
aS'ENTY:other'
p353
aS'HUM:ind'
p354
aS'LOC:other'
p355
aS'HUM:ind'
p356
aS'NUM:date'
p357
aS'NUM:count'
p358
aS'DESC:reason'
p359
aS'HUM:ind'
p360
aS'HUM:gr'
p361
aS'DESC:def'
p362
aS'LOC:city'
p363
aS'DESC:def'
p364
aS'ENTY:other'
p365
aS'HUM:ind'
p366
aS'DESC:manner'
p367
aS'ENTY:event'
p368
aS'DESC:manner'
p369
aS'NUM:speed'
p370
aS'HUM:ind'
p371
aS'ENTY:animal'
p372
aS'HUM:ind'
p373
aS'LOC:other'
p374
aS'ENTY:cremat'
p375
aS'HUM:ind'
p376
aS'LOC:other'
p377
aS'ENTY:event'
p378
aS'HUM:ind'
p379
aS'NUM:count'
p380
aS'HUM:ind'
p381
aS'ABBR:abb'
p382
aS'LOC:mount'
p383
aS'HUM:ind'
p384
aS'DESC:reason'
p385
aS'LOC:other'
p386
aS'NUM:count'
p387
aS'ENTY:dismed'
p388
aS'ENTY:cremat'
p389
aS'DESC:desc'
p390
aS'HUM:ind'
p391
aS'HUM:ind'
p392
aS'ENTY:cremat'
p393
aS'LOC:other'
p394
aS'ENTY:product'
p395
aS'NUM:date'
p396
aS'DESC:def'
p397
aS'ENTY:other'
p398
aS'DESC:def'
p399
aS'NUM:count'
p400
aS'ENTY:food'
p401
aS'LOC:city'
p402
aS'NUM:count'
p403
aS'ENTY:cremat'
p404
aS'ENTY:animal'
p405
aS'DESC:desc'
p406
aS'DESC:manner'
p407
aS'ENTY:food'
p408
aS'NUM:other'
p409
aS'ENTY:techmeth'
p410
aS'ENTY:other'
p411
aS'DESC:manner'
p412
aS'LOC:mount'
p413
aS'LOC:other'
p414
aS'LOC:country'
p415
aS'NUM:date'
p416
aS'HUM:gr'
p417
aS'ENTY:cremat'
p418
aS'LOC:city'
p419
aS'HUM:ind'
p420
aS'DESC:reason'
p421
aS'LOC:other'
p422
aS'DESC:desc'
p423
aS'LOC:state'
p424
aS'DESC:desc'
p425
aS'NUM:date'
p426
aS'HUM:ind'
p427
aS'ENTY:animal'
p428
aS'DESC:reason'
p429
aS'ENTY:other'
p430
aS'NUM:money'
p431
aS'HUM:ind'
p432
aS'HUM:desc'
p433
aS'DESC:def'
p434
aS'HUM:ind'
p435
aS'LOC:mount'
p436
aS'LOC:other'
p437
aS'LOC:other'
p438
aS'ENTY:other'
p439
aS'DESC:reason'
p440
aS'ENTY:dismed'
p441
aS'NUM:count'
p442
aS'NUM:count'
p443
aS'ABBR:exp'
p444
aS'DESC:def'
p445
aS'ENTY:cremat'
p446
aS'ENTY:sport'
p447
aS'DESC:manner'
p448
aS'NUM:date'
p449
aS'DESC:reason'
p450
aS'HUM:ind'
p451
aS'HUM:ind'
p452
aS'LOC:other'
p453
aS'DESC:reason'
p454
aS'HUM:ind'
p455
aS'LOC:other'
p456
aS'ENTY:word'
p457
aS'ENTY:instru'
p458
aS'LOC:other'
p459
aS'DESC:reason'
p460
aS'HUM:ind'
p461
aS'ENTY:body'
p462
aS'LOC:country'
p463
aS'HUM:ind'
p464
aS'NUM:speed'
p465
aS'LOC:other'
p466
aS'LOC:other'
p467
aS'ENTY:cremat'
p468
aS'HUM:ind'
p469
aS'ENTY:cremat'
p470
aS'LOC:other'
p471
aS'HUM:desc'
p472
aS'ENTY:lang'
p473
aS'HUM:ind'
p474
aS'DESC:def'
p475
aS'ENTY:cremat'
p476
aS'HUM:gr'
p477
aS'NUM:count'
p478
aS'ENTY:food'
p479
aS'ENTY:termeq'
p480
aS'DESC:desc'
p481
aS'DESC:reason'
p482
aS'NUM:date'
p483
aS'HUM:ind'
p484
aS'ENTY:cremat'
p485
aS'ENTY:other'
p486
aS'HUM:ind'
p487
aS'HUM:gr'
p488
aS'LOC:city'
p489
aS'HUM:ind'
p490
aS'ENTY:food'
p491
aS'HUM:ind'
p492
aS'LOC:other'
p493
aS'NUM:count'
p494
aS'HUM:ind'
p495
aS'ENTY:cremat'
p496
aS'DESC:reason'
p497
aS'DESC:def'
p498
aS'HUM:ind'
p499
aS'HUM:gr'
p500
aS'NUM:period'
p501
aS'HUM:ind'
p502
aS'LOC:other'
p503
aS'HUM:ind'
p504
aS'HUM:ind'
p505
aS'ENTY:other'
p506
aS'ENTY:other'
p507
aS'HUM:ind'
p508
aS'LOC:city'
p509
aS'ENTY:other'
p510
aS'ENTY:animal'
p511
aS'NUM:perc'
p512
aS'ENTY:substance'
p513
aS'DESC:desc'
p514
aS'LOC:country'
p515
aS'DESC:desc'
p516
aS'LOC:country'
p517
aS'NUM:count'
p518
aS'ABBR:exp'
p519
aS'ENTY:other'
p520
aS'NUM:money'
p521
aS'DESC:reason'
p522
aS'LOC:country'
p523
aS'ENTY:other'
p524
aS'HUM:ind'
p525
aS'HUM:ind'
p526
aS'ENTY:other'
p527
aS'LOC:city'
p528
aS'DESC:def'
p529
aS'NUM:count'
p530
aS'NUM:date'
p531
aS'LOC:city'
p532
aS'NUM:code'
p533
aS'HUM:ind'
p534
aS'NUM:count'
p535
aS'ENTY:product'
p536
aS'NUM:dist'
p537
aS'LOC:city'
p538
aS'DESC:def'
p539
aS'DESC:manner'
p540
aS'ENTY:cremat'
p541
aS'HUM:ind'
p542
aS'DESC:desc'
p543
aS'ENTY:dismed'
p544
aS'ENTY:animal'
p545
aS'NUM:count'
p546
aS'LOC:city'
p547
aS'LOC:other'
p548
aS'NUM:date'
p549
aS'ENTY:other'
p550
aS'NUM:date'
p551
aS'ENTY:termeq'
p552
aS'DESC:def'
p553
aS'DESC:desc'
p554
aS'DESC:manner'
p555
aS'LOC:mount'
p556
aS'HUM:gr'
p557
aS'DESC:def'
p558
aS'ENTY:cremat'
p559
aS'LOC:country'
p560
aS'LOC:other'
p561
aS'LOC:state'
p562
aS'ENTY:cremat'
p563
aS'NUM:temp'
p564
aS'ENTY:dismed'
p565
aS'ENTY:cremat'
p566
aS'DESC:def'
p567
aS'LOC:other'
p568
aS'ENTY:other'
p569
aS'LOC:city'
p570
aS'HUM:ind'
p571
aS'LOC:other'
p572
aS'ENTY:sport'
p573
aS'ENTY:other'
p574
aS'DESC:def'
p575
aS'HUM:ind'
p576
aS'LOC:other'
p577
aS'HUM:gr'
p578
aS'ENTY:substance'
p579
aS'ENTY:food'
p580
aS'LOC:other'
p581
aS'HUM:ind'
p582
aS'DESC:reason'
p583
aS'HUM:ind'
p584
aS'ENTY:cremat'
p585
aS'LOC:other'
p586
aS'ENTY:dismed'
p587
aS'NUM:count'
p588
aS'ENTY:food'
p589
aS'ABBR:exp'
p590
aS'NUM:count'
p591
aS'ENTY:plant'
p592
aS'LOC:country'
p593
aS'ENTY:other'
p594
aS'HUM:ind'
p595
aS'ENTY:sport'
p596
aS'HUM:ind'
p597
aS'NUM:count'
p598
aS'ENTY:word'
p599
aS'LOC:other'
p600
aS'HUM:ind'
p601
aS'ENTY:animal'
p602
aS'ENTY:other'
p603
aS'DESC:def'
p604
aS'NUM:perc'
p605
aS'ENTY:color'
p606
aS'ENTY:substance'
p607
aS'DESC:def'
p608
aS'NUM:money'
p609
aS'HUM:gr'
p610
aS'HUM:ind'
p611
aS'HUM:ind'
p612
aS'DESC:def'
p613
aS'ENTY:symbol'
p614
aS'ENTY:animal'
p615
aS'DESC:def'
p616
aS'NUM:date'
p617
aS'ENTY:cremat'
p618
aS'HUM:ind'
p619
aS'DESC:manner'
p620
aS'HUM:ind'
p621
aS'DESC:manner'
p622
aS'DESC:def'
p623
aS'LOC:other'
p624
aS'LOC:other'
p625
aS'ENTY:substance'
p626
aS'DESC:reason'
p627
aS'LOC:city'
p628
aS'NUM:date'
p629
aS'DESC:reason'
p630
aS'NUM:count'
p631
aS'ENTY:color'
p632
aS'DESC:reason'
p633
aS'HUM:desc'
p634
aS'ENTY:cremat'
p635
aS'DESC:def'
p636
aS'ENTY:food'
p637
aS'HUM:ind'
p638
aS'ENTY:other'
p639
aS'NUM:date'
p640
aS'DESC:desc'
p641
aS'ENTY:sport'
p642
aS'DESC:def'
p643
aS'LOC:other'
p644
aS'HUM:gr'
p645
aS'HUM:ind'
p646
aS'ENTY:food'
p647
aS'HUM:ind'
p648
aS'ENTY:termeq'
p649
aS'DESC:def'
p650
aS'ENTY:product'
p651
aS'NUM:speed'
p652
aS'ENTY:termeq'
p653
aS'DESC:def'
p654
aS'HUM:gr'
p655
aS'NUM:date'
p656
aS'LOC:other'
p657
aS'DESC:manner'
p658
aS'DESC:desc'
p659
aS'HUM:desc'
p660
aS'LOC:other'
p661
aS'ENTY:animal'
p662
aS'NUM:count'
p663
aS'ENTY:cremat'
p664
aS'HUM:ind'
p665
aS'NUM:ord'
p666
aS'HUM:ind'
p667
aS'HUM:ind'
p668
aS'ABBR:abb'
p669
aS'NUM:speed'
p670
aS'LOC:mount'
p671
aS'LOC:other'
p672
aS'HUM:ind'
p673
aS'NUM:period'
p674
aS'LOC:other'
p675
aS'LOC:country'
p676
aS'DESC:manner'
p677
aS'DESC:manner'
p678
aS'HUM:ind'
p679
aS'ENTY:dismed'
p680
aS'DESC:desc'
p681
aS'HUM:ind'
p682
aS'DESC:reason'
p683
aS'ENTY:other'
p684
aS'ENTY:cremat'
p685
aS'LOC:country'
p686
aS'LOC:other'
p687
aS'ENTY:dismed'
p688
aS'ENTY:sport'
p689
aS'HUM:ind'
p690
aS'HUM:ind'
p691
aS'LOC:state'
p692
aS'DESC:desc'
p693
aS'DESC:desc'
p694
aS'ENTY:sport'
p695
aS'HUM:ind'
p696
aS'ENTY:cremat'
p697
aS'DESC:def'
p698
aS'NUM:count'
p699
aS'ENTY:product'
p700
aS'NUM:dist'
p701
aS'HUM:ind'
p702
aS'HUM:gr'
p703
aS'LOC:other'
p704
aS'HUM:ind'
p705
aS'ENTY:dismed'
p706
aS'NUM:other'
p707
aS'HUM:title'
p708
aS'DESC:manner'
p709
aS'NUM:dist'
p710
aS'LOC:other'
p711
aS'ENTY:food'
p712
aS'ENTY:dismed'
p713
aS'NUM:count'
p714
aS'ENTY:animal'
p715
aS'ENTY:cremat'
p716
aS'ENTY:letter'
p717
aS'DESC:desc'
p718
aS'ENTY:word'
p719
aS'HUM:ind'
p720
aS'NUM:date'
p721
aS'NUM:perc'
p722
aS'NUM:date'
p723
aS'LOC:city'
p724
aS'LOC:city'
p725
aS'HUM:ind'
p726
aS'DESC:def'
p727
aS'NUM:count'
p728
aS'HUM:ind'
p729
aS'LOC:city'
p730
aS'HUM:ind'
p731
aS'NUM:count'
p732
aS'DESC:def'
p733
aS'HUM:ind'
p734
aS'LOC:other'
p735
aS'NUM:dist'
p736
aS'DESC:desc'
p737
aS'HUM:ind'
p738
aS'DESC:manner'
p739
aS'ENTY:termeq'
p740
aS'ENTY:color'
p741
aS'NUM:money'
p742
aS'HUM:ind'
p743
aS'NUM:count'
p744
aS'ENTY:other'
p745
aS'ENTY:lang'
p746
aS'NUM:count'
p747
aS'DESC:desc'
p748
aS'NUM:count'
p749
aS'DESC:def'
p750
aS'DESC:def'
p751
aS'LOC:other'
p752
aS'HUM:ind'
p753
aS'ENTY:animal'
p754
aS'HUM:ind'
p755
aS'NUM:count'
p756
aS'DESC:manner'
p757
aS'LOC:other'
p758
aS'NUM:perc'
p759
aS'LOC:other'
p760
aS'ENTY:cremat'
p761
aS'DESC:reason'
p762
aS'DESC:manner'
p763
aS'DESC:manner'
p764
aS'ENTY:animal'
p765
aS'DESC:manner'
p766
aS'LOC:other'
p767
aS'DESC:manner'
p768
aS'HUM:ind'
p769
aS'ENTY:product'
p770
aS'DESC:reason'
p771
aS'HUM:ind'
p772
aS'HUM:desc'
p773
aS'HUM:ind'
p774
aS'ENTY:cremat'
p775
aS'ENTY:event'
p776
aS'DESC:def'
p777
aS'DESC:reason'
p778
aS'ENTY:dismed'
p779
aS'DESC:def'
p780
aS'LOC:country'
p781
aS'NUM:count'
p782
aS'ENTY:plant'
p783
aS'NUM:date'
p784
aS'ENTY:food'
p785
aS'HUM:ind'
p786
aS'NUM:money'
p787
aS'NUM:date'
p788
aS'ENTY:lang'
p789
aS'HUM:gr'
p790
aS'DESC:manner'
p791
aS'DESC:def'
p792
aS'HUM:ind'
p793
aS'DESC:def'
p794
aS'HUM:ind'
p795
aS'ENTY:dismed'
p796
aS'HUM:ind'
p797
aS'NUM:period'
p798
aS'ENTY:other'
p799
aS'DESC:reason'
p800
aS'HUM:ind'
p801
aS'LOC:city'
p802
aS'HUM:ind'
p803
aS'DESC:def'
p804
aS'HUM:ind'
p805
aS'HUM:ind'
p806
aS'HUM:ind'
p807
aS'ENTY:product'
p808
aS'HUM:ind'
p809
aS'DESC:def'
p810
aS'HUM:ind'
p811
aS'ENTY:dismed'
p812
aS'DESC:def'
p813
aS'NUM:date'
p814
aS'DESC:def'
p815
aS'ENTY:animal'
p816
aS'LOC:other'
p817
aS'ENTY:animal'
p818
aS'DESC:desc'
p819
aS'ENTY:other'
p820
aS'NUM:count'
p821
aS'DESC:manner'
p822
aS'DESC:manner'
p823
aS'HUM:ind'
p824
aS'ENTY:veh'
p825
aS'LOC:city'
p826
aS'ENTY:product'
p827
aS'NUM:money'
p828
aS'ABBR:exp'
p829
aS'HUM:ind'
p830
aS'HUM:gr'
p831
aS'HUM:ind'
p832
aS'ENTY:techmeth'
p833
aS'ENTY:food'
p834
aS'ENTY:termeq'
p835
aS'ENTY:cremat'
p836
aS'NUM:count'
p837
aS'ENTY:other'
p838
aS'DESC:def'
p839
aS'NUM:count'
p840
aS'HUM:ind'
p841
aS'ENTY:cremat'
p842
aS'DESC:desc'
p843
aS'ENTY:word'
p844
aS'DESC:reason'
p845
aS'DESC:reason'
p846
aS'HUM:desc'
p847
aS'ENTY:animal'
p848
aS'ABBR:exp'
p849
aS'LOC:country'
p850
aS'HUM:ind'
p851
aS'ENTY:event'
p852
aS'HUM:title'
p853
aS'HUM:ind'
p854
aS'ABBR:exp'
p855
aS'DESC:def'
p856
aS'HUM:ind'
p857
aS'DESC:def'
p858
aS'NUM:count'
p859
aS'NUM:count'
p860
aS'HUM:ind'
p861
aS'HUM:ind'
p862
aS'NUM:other'
p863
aS'LOC:other'
p864
aS'NUM:date'
p865
aS'DESC:reason'
p866
aS'HUM:gr'
p867
aS'HUM:gr'
p868
aS'LOC:other'
p869
aS'LOC:state'
p870
aS'ENTY:animal'
p871
aS'LOC:country'
p872
aS'LOC:other'
p873
aS'ENTY:lang'
p874
aS'LOC:other'
p875
aS'HUM:ind'
p876
aS'HUM:ind'
p877
aS'LOC:state'
p878
aS'DESC:reason'
p879
aS'HUM:title'
p880
aS'LOC:city'
p881
aS'HUM:ind'
p882
aS'HUM:ind'
p883
aS'ENTY:animal'
p884
aS'DESC:desc'
p885
aS'ENTY:color'
p886
aS'LOC:other'
p887
aS'ENTY:event'
p888
aS'HUM:ind'
p889
aS'HUM:ind'
p890
aS'HUM:ind'
p891
aS'DESC:def'
p892
aS'ENTY:termeq'
p893
aS'NUM:date'
p894
aS'ENTY:dismed'
p895
aS'NUM:count'
p896
aS'NUM:date'
p897
aS'HUM:ind'
p898
aS'ENTY:word'
p899
aS'NUM:count'
p900
aS'HUM:gr'
p901
aS'LOC:other'
p902
aS'ENTY:food'
p903
aS'HUM:gr'
p904
aS'NUM:date'
p905
aS'NUM:count'
p906
aS'NUM:date'
p907
aS'LOC:mount'
p908
aS'DESC:reason'
p909
aS'HUM:ind'
p910
aS'NUM:count'
p911
aS'ENTY:veh'
p912
aS'LOC:other'
p913
aS'DESC:manner'
p914
aS'LOC:other'
p915
aS'LOC:country'
p916
aS'ENTY:body'
p917
aS'NUM:count'
p918
aS'LOC:country'
p919
aS'ENTY:event'
p920
aS'DESC:desc'
p921
aS'HUM:ind'
p922
aS'DESC:desc'
p923
aS'ENTY:cremat'
p924
aS'DESC:reason'
p925
aS'HUM:ind'
p926
aS'ENTY:other'
p927
aS'ENTY:plant'
p928
aS'LOC:country'
p929
aS'HUM:ind'
p930
aS'ENTY:food'
p931
aS'LOC:state'
p932
aS'DESC:reason'
p933
aS'DESC:def'
p934
aS'LOC:city'
p935
aS'ENTY:substance'
p936
aS'LOC:country'
p937
aS'ENTY:color'
p938
aS'HUM:ind'
p939
aS'DESC:desc'
p940
aS'HUM:ind'
p941
aS'ENTY:sport'
p942
aS'LOC:country'
p943
aS'LOC:country'
p944
aS'HUM:ind'
p945
aS'DESC:desc'
p946
aS'ENTY:sport'
p947
aS'DESC:def'
p948
aS'ENTY:animal'
p949
aS'DESC:def'
p950
aS'HUM:ind'
p951
aS'NUM:count'
p952
aS'LOC:city'
p953
aS'LOC:other'
p954
aS'HUM:ind'
p955
aS'ENTY:termeq'
p956
aS'DESC:def'
p957
aS'HUM:ind'
p958
aS'NUM:count'
p959
aS'DESC:def'
p960
aS'NUM:date'
p961
aS'ENTY:sport'
p962
aS'LOC:other'
p963
aS'DESC:def'
p964
aS'NUM:date'
p965
aS'ENTY:other'
p966
aS'NUM:count'
p967
aS'ENTY:food'
p968
aS'ENTY:other'
p969
aS'ENTY:event'
p970
aS'ENTY:cremat'
p971
aS'LOC:other'
p972
aS'DESC:desc'
p973
aS'HUM:ind'
p974
aS'HUM:ind'
p975
aS'HUM:ind'
p976
aS'NUM:money'
p977
aS'ENTY:other'
p978
aS'HUM:ind'
p979
aS'NUM:money'
p980
aS'ABBR:exp'
p981
aS'DESC:manner'
p982
aS'LOC:state'
p983
aS'DESC:reason'
p984
aS'ENTY:cremat'
p985
aS'NUM:count'
p986
aS'HUM:ind'
p987
aS'ENTY:event'
p988
aS'HUM:ind'
p989
aS'DESC:def'
p990
aS'LOC:other'
p991
aS'ENTY:dismed'
p992
aS'ENTY:sport'
p993
aS'ENTY:animal'
p994
aS'ENTY:event'
p995
aS'DESC:manner'
p996
aS'LOC:other'
p997
aS'DESC:desc'
p998
aS'HUM:ind'
p999
aS'HUM:ind'
p1000
a.